(dp0
S'modem1'
p1
S'192.168.0.1'
p2
sS'modem2'
p3
S'192.168.0.2'
p4
sS'modem3'
p5
S'192.168.0.3'
p6
sS'modem4'
p7
S'192.168.0.4'
p8
sS'modem5'
p9
S'192.168.0.5'
p10
sS'modem6'
p11
S'192.168.0.6'
p12
sS'modem7'
p13
S'192.168.0.7'
p14
sS'modem8'
p15
S'192.168.0.8'
p16
sS'modem9'
p17
S'192.168.0.9'
p18
sS'modem10'
p19
S'192.168.0.10'
p20
s.
